Certificate:
    Data:
        Version: 3 (0x2)
        Serial Number:
            be:34:06:89
    Signature Algorithm: sha256WithRSAEncryption
        Issuer: C=US, ST=California, L=San Francisco, O=Twitch, OU=Twitch Developer Rig, CN=Twitch Developer Rig CA/emailAddress=twitchdev@twitch.tv
        Validity
            Not Before: Oct 16 16:39:08 2018 GMT
            Not After : Jul 30 16:39:08 2292 GMT
        Subject: C=US, ST=California, L=San Francisco, O=Twitch, OU=Twitch Developer Rig, CN=Twitch Developer Rig
        Subject Public Key Info:
            Public Key Algorithm: rsaEncryption
                Public-Key: (2048 bit)
                Modulus:
                    00:da:74:19:77:7d:6e:71:3a:33:65:77:68:aa:cb:
                    cc:88:55:bd:c7:fe:aa:25:8f:8c:59:7d:04:96:a3:
                    47:2c:6e:bb:ad:0f:3d:68:7d:60:a4:52:48:2b:ed:
                    d5:34:66:47:09:0e:9c:1d:3b:24:85:df:0e:d0:82:
                    76:3b:4f:c4:2e:2f:f1:ab:c8:75:fa:4b:2a:f3:97:
                    b2:86:9d:66:cf:2f:70:d3:fe:bd:1f:74:e0:3c:62:
                    3b:bf:81:21:66:6c:1d:17:73:1c:6e:6d:05:f5:7e:
                    e4:b1:96:9f:2a:da:9e:b1:ff:24:e3:e4:9e:07:0d:
                    45:d7:88:d9:71:d9:61:b8:c8:ea:71:c0:ed:f9:78:
                    1a:30:1f:7b:77:b0:99:35:07:0f:9e:0b:eb:df:46:
                    b8:71:b1:68:df:22:4e:6d:84:0c:91:a9:25:f7:44:
                    84:4d:b1:5c:05:55:a4:8d:0b:6f:21:a6:9b:f7:7c:
                    04:ae:d9:a3:55:c7:55:8c:3d:6c:52:39:cd:fc:52:
                    27:56:c1:b7:9f:f7:27:b5:35:69:b6:11:84:e2:33:
                    63:14:9e:9e:06:bf:07:a1:db:09:f7:36:d9:1d:fa:
                    23:7c:72:5f:9c:fd:af:88:62:ae:d7:d6:93:a4:52:
                    2a:f9:b1:18:ea:62:a5:31:0a:98:ed:5f:a4:e8:ad:
                    7b:49
                Exponent: 65537 (0x10001)
        X509v3 extensions:
            X509v3 Subject Key Identifier: 
                A4:7E:0C:AE:0B:22:E7:7C:EB:C5:3E:2D:59:4E:67:89:E4:E9:09:61
            X509v3 Authority Key Identifier: 
                keyid:92:CD:F1:FB:05:B1:18:10:4C:AC:DC:57:04:29:62:5B:B9:DC:A9:9B

            X509v3 Basic Constraints: 
                CA:FALSE
            X509v3 Key Usage: 
                Digital Signature, Key Encipherment
            X509v3 Subject Alternative Name: 
                IP Address:127.0.0.1, IP Address:0:0:0:0:0:0:0:1, DNS:localhost.rig.twitch.tv, DNS:localhost
            Netscape Comment: 
                OpenSSL Generated Certificate
    Signature Algorithm: sha256WithRSAEncryption
         cf:20:cc:fa:6c:4b:dc:d5:d0:32:ae:4e:f5:00:d4:52:19:44:
         3b:b1:7d:38:cd:f5:fe:7d:fe:d5:22:32:51:8f:e8:81:f9:ec:
         d2:0a:0c:f3:f0:07:b9:4d:7c:bb:46:28:f0:84:72:d7:0f:e6:
         d7:ca:0c:42:53:ef:69:1c:b0:49:7e:a5:44:12:c5:80:50:fa:
         0c:11:c9:42:47:e3:dc:d0:c4:26:a5:4b:5e:c6:ac:7b:f4:73:
         e7:c5:80:b1:37:8c:2e:12:d0:34:cc:c9:9e:51:2d:25:2c:d1:
         fd:78:0b:75:b0:4e:da:44:00:dc:55:6f:8e:71:d9:b8:51:78:
         d5:1e:2c:38:82:36:bf:65:95:ca:84:f4:9f:91:1d:17:b5:ea:
         62:12:04:be:fc:4c:42:f7:e3:e3:42:5f:64:bc:17:88:8a:ad:
         d7:00:d4:6c:c4:f8:2d:89:3e:dd:b1:77:3d:73:f2:95:f5:c1:
         0d:00:f5:84:a0:bc:2d:90:c4:ac:1b:bc:ed:ed:ad:0b:60:3d:
         62:70:9a:cd:53:9c:39:88:66:09:36:19:70:74:b7:93:7c:92:
         43:bc:a9:63:18:0c:dd:c0:bd:5e:65:7d:9d:8e:03:d2:17:ac:
         4b:6d:20:2a:23:19:81:14:a6:68:11:c0:da:cf:ac:1d:1e:fa:
         8d:e9:7a:f4:cf:89:c2:2c:23:46:eb:53:b9:c1:b7:d7:fb:f2:
         97:6d:29:03:9f:5d:02:7c:ac:35:17:92:c7:93:af:10:c2:25:
         1d:b0:d0:6c:21:ac:5b:d1:00:41:38:e8:09:a6:48:5d:18:ce:
         bc:c1:a4:37:ef:0d:b3:92:47:5b:13:73:9b:66:79:44:69:35:
         49:c2:f7:f8:15:78:20:82:d6:1b:f0:6c:1c:9c:d5:13:70:77:
         7b:5d:48:a6:f4:df:68:13:3a:a5:5b:c8:6f:7c:c1:58:c9:4a:
         c3:69:75:57:79:06:d7:fb:2b:e3:9a:a3:47:d5:dd:a0:41:15:
         03:ba:26:39:db:5d:fc:32:e7:ac:ee:0c:55:b2:8e:e2:86:ac:
         81:94:a9:49:73:fb:91:78:f1:78:78:be:56:e1:2d:ff:a6:dc:
         7c:3a:d0:30:32:ea:c8:ec:52:2a:96:53:87:1b:df:55:ba:f6:
         51:91:b9:41:45:2e:83:e8:75:5e:3e:ed:02:42:a0:1d:71:1c:
         dd:b7:4c:81:54:1f:1d:31:5b:6e:69:da:2a:02:d6:6d:2c:4b:
         e2:be:5b:98:13:72:95:0e:b6:5d:7e:48:2b:ac:b6:8a:06:33:
         d7:98:5c:79:7f:a2:aa:49:86:e1:5c:4d:64:8e:5a:83:1f:e9:
         f2:e9:57:ae:7c:6b:18:c1
-----BEGIN CERTIFICATE-----
MIIFjTCCA3WgAwIBAgIFAL40BokwDQYJKoZIhvcNAQELBQAwgbAxCzAJBgNVBAYT
AlVTMRMwEQYDVQQIDApDYWxpZm9ybmlhMRYwFAYDVQQHDA1TYW4gRnJhbmNpc2Nv
MQ8wDQYDVQQKDAZUd2l0Y2gxHTAbBgNVBAsMFFR3aXRjaCBEZXZlbG9wZXIgUmln
MSAwHgYDVQQDDBdUd2l0Y2ggRGV2ZWxvcGVyIFJpZyBDQTEiMCAGCSqGSIb3DQEJ
ARYTdHdpdGNoZGV2QHR3aXRjaC50djAgFw0xODEwMTYxNjM5MDhaGA8yMjkyMDcz
MDE2MzkwOFowgYkxCzAJBgNVBAYTAlVTMRMwEQYDVQQIDApDYWxpZm9ybmlhMRYw
FAYDVQQHDA1TYW4gRnJhbmNpc2NvMQ8wDQYDVQQKDAZUd2l0Y2gxHTAbBgNVBAsM
FFR3aXRjaCBEZXZlbG9wZXIgUmlnMR0wGwYDVQQDDBRUd2l0Y2ggRGV2ZWxvcGVy
IFJpZzCCASIwDQYJKoZIhvcNAQEBBQADggEPADCCAQoCggEBANp0GXd9bnE6M2V3
aKrLzIhVvcf+qiWPjFl9BJajRyxuu60PPWh9YKRSSCvt1TRmRwkOnB07JIXfDtCC
djtPxC4v8avIdfpLKvOXsoadZs8vcNP+vR904DxiO7+BIWZsHRdzHG5tBfV+5LGW
nyranrH/JOPkngcNRdeI2XHZYbjI6nHA7fl4GjAfe3ewmTUHD54L699GuHGxaN8i
Tm2EDJGpJfdEhE2xXAVVpI0LbyGmm/d8BK7Zo1XHVYw9bFI5zfxSJ1bBt5/3J7U1
abYRhOIzYxSenga/B6HbCfc22R36I3xyX5z9r4hirtfWk6RSKvmxGOpipTEKmO1f
pOite0kCAwEAAaOB0DCBzTAdBgNVHQ4EFgQUpH4Mrgsi53zrxT4tWU5nieTpCWEw
HwYDVR0jBBgwFoAUks3x+wWxGBBMrNxXBCliW7ncqZswCQYDVR0TBAIwADALBgNV
HQ8EBAMCBaAwRQYDVR0RBD4wPIcEfwAAAYcQAAAAAAAAAAAAAAAAAAAAAYIXbG9j
YWxob3N0LnJpZy50d2l0Y2gudHaCCWxvY2FsaG9zdDAsBglghkgBhvhCAQ0EHxYd
T3BlblNTTCBHZW5lcmF0ZWQgQ2VydGlmaWNhdGUwDQYJKoZIhvcNAQELBQADggIB
AM8gzPpsS9zV0DKuTvUA1FIZRDuxfTjN9f59/tUiMlGP6IH57NIKDPPwB7lNfLtG
KPCEctcP5tfKDEJT72kcsEl+pUQSxYBQ+gwRyUJH49zQxCalS17GrHv0c+fFgLE3
jC4S0DTMyZ5RLSUs0f14C3WwTtpEANxVb45x2bhReNUeLDiCNr9llcqE9J+RHRe1
6mISBL78TEL34+NCX2S8F4iKrdcA1GzE+C2JPt2xdz1z8pX1wQ0A9YSgvC2QxKwb
vO3trQtgPWJwms1TnDmIZgk2GXB0t5N8kkO8qWMYDN3AvV5lfZ2OA9IXrEttICoj
GYEUpmgRwNrPrB0e+o3pevTPicIsI0brU7nBt9f78pdtKQOfXQJ8rDUXkseTrxDC
JR2w0GwhrFvRAEE46AmmSF0YzrzBpDfvDbOSR1sTc5tmeURpNUnC9/gVeCCC1hvw
bByc1RNwd3tdSKb032gTOqVbyG98wVjJSsNpdVd5Btf7K+Oao0fV3aBBFQO6Jjnb
Xfwy56zuDFWyjuKGrIGUqUlz+5F48Xh4vlbhLf+m3Hw60DAy6sjsUiqWU4cb31W6
9lGRuUFFLoPodV4+7QJCoB1xHN23TIFUHx0xW25p2ioC1m0sS+K+W5gTcpUOtl1+
SCustooGM9eYXHl/oqpJhuFcTWSOWoMf6fLpV658axjB
-----END CERTIFICATE-----
